target datalayout = "e-m:e-p270:32:32-p271:32:32-p272:64:64-i64:64-i128:128-f80:128-n8:16:32:64-S128"
target triple = "x86_64-pc-linux-gnu"

%struct._packet_info = type { ptr, ptr, i32, i32, %struct.nstime_t, %struct.nstime_t, %struct.nstime_t, i32, ptr, ptr, ptr, ptr, %struct._address, %struct._address, %struct._address, %struct._address, %struct._address, %struct._address, i32, ptr, i32, %struct.anon, i32, i32, i32, i32, ptr, i32, ptr, ptr, i16, i16, i32, i32, i16, i32, i32, ptr, ptr, ptr, i8, i8, i16, i16, i16, i32, i16, i16, ptr, ptr, ptr, ptr, ptr, i32 }
%struct.nstime_t = type { i64, i32 }
%struct._address = type { i32, i32, ptr, ptr }
%struct.anon = type { i8, [3 x i8] }

@hf_ubx_nav_pvt = internal global i32 0, align 4
@.str.173 = private unnamed_addr constant [12 x i8] c"UBX-NAV-PVT\00", align 1
@hf_ubx_nav_pvt_itow = internal global i32 0, align 4
@hf_ubx_nav_pvt_year = internal global i32 0, align 4
@hf_ubx_nav_pvt_month = internal global i32 0, align 4
@hf_ubx_nav_pvt_day = internal global i32 0, align 4
@hf_ubx_nav_pvt_hour = internal global i32 0, align 4
@hf_ubx_nav_pvt_min = internal global i32 0, align 4
@hf_ubx_nav_pvt_sec = internal global i32 0, align 4
@hf_ubx_nav_pvt_valid = internal global i32 0, align 4
@hf_ubx_nav_pvt_tacc = internal global i32 0, align 4
@hf_ubx_nav_pvt_nano = internal global i32 0, align 4
@hf_ubx_nav_pvt_fixtype = internal global i32 0, align 4
@hf_ubx_nav_pvt_flags = internal global i32 0, align 4
@hf_ubx_nav_pvt_flags2 = internal global i32 0, align 4
@hf_ubx_nav_pvt_numsv = internal global i32 0, align 4
@hf_ubx_nav_pvt_lon = internal global i32 0, align 4
@hf_ubx_nav_pvt_lat = internal global i32 0, align 4
@hf_ubx_nav_pvt_height = internal global i32 0, align 4
@hf_ubx_nav_pvt_hmsl = internal global i32 0, align 4
@hf_ubx_nav_pvt_hacc = internal global i32 0, align 4
@hf_ubx_nav_pvt_vacc = internal global i32 0, align 4
@hf_ubx_nav_pvt_veln = internal global i32 0, align 4
@hf_ubx_nav_pvt_vele = internal global i32 0, align 4
@hf_ubx_nav_pvt_veld = internal global i32 0, align 4
@hf_ubx_nav_pvt_gspeed = internal global i32 0, align 4
@hf_ubx_nav_pvt_headmot = internal global i32 0, align 4
@hf_ubx_nav_pvt_sacc = internal global i32 0, align 4
@hf_ubx_nav_pvt_headacc = internal global i32 0, align 4
@hf_ubx_nav_pvt_pdop = internal global i32 0, align 4
@hf_ubx_nav_pvt_lastcorrectionage = internal global i32 0, align 4
@hf_ubx_nav_pvt_invalidllh = internal global i32 0, align 4
@hf_ubx_nav_pvt_reserved1 = internal global i32 0, align 4
@hf_ubx_nav_pvt_headveh = internal global i32 0, align 4
@hf_ubx_nav_pvt_magdec = internal global i32 0, align 4
@hf_ubx_nav_pvt_magacc = internal global i32 0, align 4
@ett_ubx_nav_pvt = internal global i32 0, align 4
@ett_ubx_nav_pvt_datetime = internal global i32 0, align 4
@ett_ubx_nav_pvt_valid = internal global i32 0, align 4
@ett_ubx_nav_pvt_flags = internal global i32 0, align 4
@ett_ubx_nav_pvt_flags2 = internal global i32 0, align 4
@.str.760 = private unnamed_addr constant [41 x i8] c"Date/time: %04d-%02d-%02d %02d:%02d:%02d\00", align 1
@ubx_nav_pvt_valid_fields = internal constant [5 x ptr] [ptr @hf_ubx_nav_pvt_validdate, ptr @hf_ubx_nav_pvt_validtime, ptr @hf_ubx_nav_pvt_fullyresolved, ptr @hf_ubx_nav_pvt_validmag, ptr null], align 16
@ubx_nav_pvt_flags_fields = internal constant [5 x ptr] [ptr @hf_ubx_nav_pvt_gnssfixok, ptr @hf_ubx_nav_pvt_diffsoln, ptr @hf_ubx_nav_pvt_psmstate, ptr @hf_ubx_nav_pvt_headvehvalid, ptr null], align 16
@ubx_nav_pvt_flags2_fields = internal constant [4 x ptr] [ptr @hf_ubx_nav_pvt_confirmedavai, ptr @hf_ubx_nav_pvt_confirmeddate, ptr @hf_ubx_nav_pvt_confirmedtime, ptr null], align 16

; Function Attrs: nounwind uwtable
define internal i32 @dissect_ubx_nav_pvt(ptr noundef %0, ptr noundef %1, ptr noundef %2, ptr noundef %3) #0 {
  %5 = alloca ptr, align 8
  %6 = alloca ptr, align 8
  %7 = alloca ptr, align 8
  %8 = alloca ptr, align 8
  %9 = alloca ptr, align 8
  %10 = alloca ptr, align 8
  %11 = alloca i16, align 2
  %12 = alloca i8, align 1
  %13 = alloca i8, align 1
  %14 = alloca i8, align 1
  %15 = alloca i8, align 1
  %16 = alloca i8, align 1
  %17 = alloca ptr, align 8
  store ptr %0, ptr %5, align 8
  store ptr %1, ptr %6, align 8
  store ptr %2, ptr %7, align 8
  store ptr %3, ptr %8, align 8
  %18 = load ptr, ptr %6, align 8
  %19 = getelementptr inbounds %struct._packet_info, ptr %18, i32 0, i32 1
  %20 = load ptr, ptr %19, align 8
  call void @col_set_str(ptr noundef %20, i32 noundef 34, ptr noundef @.str.173)
  %21 = load ptr, ptr %6, align 8
  %22 = getelementptr inbounds %struct._packet_info, ptr %21, i32 0, i32 1
  %23 = load ptr, ptr %22, align 8
  call void @col_clear(ptr noundef %23, i32 noundef 25)
  %24 = load ptr, ptr %7, align 8
  %25 = load i32, ptr @hf_ubx_nav_pvt, align 4
  %26 = load ptr, ptr %5, align 8
  %27 = call ptr @proto_tree_add_item(ptr noundef %24, i32 noundef %25, ptr noundef %26, i32 noundef 0, i32 noundef 92, i32 noundef 0)
  store ptr %27, ptr %9, align 8
  %28 = load ptr, ptr %9, align 8
  %29 = load i32, ptr @ett_ubx_nav_pvt, align 4
  %30 = call ptr @proto_item_add_subtree(ptr noundef %28, i32 noundef %29)
  store ptr %30, ptr %10, align 8
  %31 = load ptr, ptr %10, align 8
  %32 = load i32, ptr @hf_ubx_nav_pvt_itow, align 4
  %33 = load ptr, ptr %5, align 8
  %34 = call ptr @proto_tree_add_item(ptr noundef %31, i32 noundef %32, ptr noundef %33, i32 noundef 0, i32 noundef 4, i32 noundef -2147483648)
  %35 = load ptr, ptr %5, align 8
  %36 = call signext i16 @tvb_get_gint16(ptr noundef %35, i32 noundef 4, i32 noundef -2147483648)
  store i16 %36, ptr %11, align 2
  %37 = load ptr, ptr %5, align 8
  %38 = call signext i8 @tvb_get_gint8(ptr noundef %37, i32 noundef 6)
  store i8 %38, ptr %12, align 1
  %39 = load ptr, ptr %5, align 8
  %40 = call signext i8 @tvb_get_gint8(ptr noundef %39, i32 noundef 7)
  store i8 %40, ptr %13, align 1
  %41 = load ptr, ptr %5, align 8
  %42 = call signext i8 @tvb_get_gint8(ptr noundef %41, i32 noundef 8)
  store i8 %42, ptr %14, align 1
  %43 = load ptr, ptr %5, align 8
  %44 = call signext i8 @tvb_get_gint8(ptr noundef %43, i32 noundef 9)
  store i8 %44, ptr %15, align 1
  %45 = load ptr, ptr %5, align 8
  %46 = call signext i8 @tvb_get_gint8(ptr noundef %45, i32 noundef 10)
  store i8 %46, ptr %16, align 1
  %47 = load ptr, ptr %10, align 8
  %48 = load ptr, ptr %5, align 8
  %49 = load i32, ptr @ett_ubx_nav_pvt_datetime, align 4
  %50 = load i16, ptr %11, align 2
  %51 = zext i16 %50 to i32
  %52 = load i8, ptr %12, align 1
  %53 = zext i8 %52 to i32
  %54 = load i8, ptr %13, align 1
  %55 = zext i8 %54 to i32
  %56 = load i8, ptr %14, align 1
  %57 = zext i8 %56 to i32
  %58 = load i8, ptr %15, align 1
  %59 = zext i8 %58 to i32
  %60 = load i8, ptr %16, align 1
  %61 = zext i8 %60 to i32
  %62 = call ptr (ptr, ptr, i32, i32, i32, ptr, ptr, ...) @proto_tree_add_subtree_format(ptr noundef %47, ptr noundef %48, i32 noundef 4, i32 noundef 7, i32 noundef %49, ptr noundef null, ptr noundef @.str.760, i32 noundef %51, i32 noundef %53, i32 noundef %55, i32 noundef %57, i32 noundef %59, i32 noundef %61)
  store ptr %62, ptr %17, align 8
  %63 = load ptr, ptr %17, align 8
  %64 = load i32, ptr @hf_ubx_nav_pvt_year, align 4
  %65 = load ptr, ptr %5, align 8
  %66 = call ptr @proto_tree_add_item(ptr noundef %63, i32 noundef %64, ptr noundef %65, i32 noundef 4, i32 noundef 2, i32 noundef -2147483648)
  %67 = load ptr, ptr %17, align 8
  %68 = load i32, ptr @hf_ubx_nav_pvt_month, align 4
  %69 = load ptr, ptr %5, align 8
  %70 = call ptr @proto_tree_add_item(ptr noundef %67, i32 noundef %68, ptr noundef %69, i32 noundef 6, i32 noundef 1, i32 noundef 0)
  %71 = load ptr, ptr %17, align 8
  %72 = load i32, ptr @hf_ubx_nav_pvt_day, align 4
  %73 = load ptr, ptr %5, align 8
  %74 = call ptr @proto_tree_add_item(ptr noundef %71, i32 noundef %72, ptr noundef %73, i32 noundef 7, i32 noundef 1, i32 noundef 0)
  %75 = load ptr, ptr %17, align 8
  %76 = load i32, ptr @hf_ubx_nav_pvt_hour, align 4
  %77 = load ptr, ptr %5, align 8
  %78 = call ptr @proto_tree_add_item(ptr noundef %75, i32 noundef %76, ptr noundef %77, i32 noundef 8, i32 noundef 1, i32 noundef 0)
  %79 = load ptr, ptr %17, align 8
  %80 = load i32, ptr @hf_ubx_nav_pvt_min, align 4
  %81 = load ptr, ptr %5, align 8
  %82 = call ptr @proto_tree_add_item(ptr noundef %79, i32 noundef %80, ptr noundef %81, i32 noundef 9, i32 noundef 1, i32 noundef 0)
  %83 = load ptr, ptr %17, align 8
  %84 = load i32, ptr @hf_ubx_nav_pvt_sec, align 4
  %85 = load ptr, ptr %5, align 8
  %86 = call ptr @proto_tree_add_item(ptr noundef %83, i32 noundef %84, ptr noundef %85, i32 noundef 10, i32 noundef 1, i32 noundef 0)
  %87 = load ptr, ptr %10, align 8
  %88 = load ptr, ptr %5, align 8
  %89 = load i32, ptr @hf_ubx_nav_pvt_valid, align 4
  %90 = load i32, ptr @ett_ubx_nav_pvt_valid, align 4
  %91 = call ptr @proto_tree_add_bitmask(ptr noundef %87, ptr noundef %88, i32 noundef 11, i32 noundef %89, i32 noundef %90, ptr noundef @ubx_nav_pvt_valid_fields, i32 noundef 0)
  %92 = load ptr, ptr %10, align 8
  %93 = load i32, ptr @hf_ubx_nav_pvt_tacc, align 4
  %94 = load ptr, ptr %5, align 8
  %95 = call ptr @proto_tree_add_item(ptr noundef %92, i32 noundef %93, ptr noundef %94, i32 noundef 12, i32 noundef 4, i32 noundef -2147483648)
  %96 = load ptr, ptr %10, align 8
  %97 = load i32, ptr @hf_ubx_nav_pvt_nano, align 4
  %98 = load ptr, ptr %5, align 8
  %99 = call ptr @proto_tree_add_item(ptr noundef %96, i32 noundef %97, ptr noundef %98, i32 noundef 16, i32 noundef 4, i32 noundef -2147483648)
  %100 = load ptr, ptr %10, align 8
  %101 = load i32, ptr @hf_ubx_nav_pvt_fixtype, align 4
  %102 = load ptr, ptr %5, align 8
  %103 = call ptr @proto_tree_add_item(ptr noundef %100, i32 noundef %101, ptr noundef %102, i32 noundef 20, i32 noundef 1, i32 noundef 0)
  %104 = load ptr, ptr %10, align 8
  %105 = load ptr, ptr %5, align 8
  %106 = load i32, ptr @hf_ubx_nav_pvt_flags, align 4
  %107 = load i32, ptr @ett_ubx_nav_pvt_flags, align 4
  %108 = call ptr @proto_tree_add_bitmask(ptr noundef %104, ptr noundef %105, i32 noundef 21, i32 noundef %106, i32 noundef %107, ptr noundef @ubx_nav_pvt_flags_fields, i32 noundef 0)
  %109 = load ptr, ptr %10, align 8
  %110 = load ptr, ptr %5, align 8
  %111 = load i32, ptr @hf_ubx_nav_pvt_flags2, align 4
  %112 = load i32, ptr @ett_ubx_nav_pvt_flags2, align 4
  %113 = call ptr @proto_tree_add_bitmask(ptr noundef %109, ptr noundef %110, i32 noundef 22, i32 noundef %111, i32 noundef %112, ptr noundef @ubx_nav_pvt_flags2_fields, i32 noundef 0)
  %114 = load ptr, ptr %10, align 8
  %115 = load i32, ptr @hf_ubx_nav_pvt_numsv, align 4
  %116 = load ptr, ptr %5, align 8
  %117 = call ptr @proto_tree_add_item(ptr noundef %114, i32 noundef %115, ptr noundef %116, i32 noundef 23, i32 noundef 1, i32 noundef 0)
  %118 = load ptr, ptr %10, align 8
  %119 = load i32, ptr @hf_ubx_nav_pvt_lon, align 4
  %120 = load ptr, ptr %5, align 8
  %121 = call ptr @proto_tree_add_item(ptr noundef %118, i32 noundef %119, ptr noundef %120, i32 noundef 24, i32 noundef 4, i32 noundef -2147483648)
  %122 = load ptr, ptr %10, align 8
  %123 = load i32, ptr @hf_ubx_nav_pvt_lat, align 4
  %124 = load ptr, ptr %5, align 8
  %125 = call ptr @proto_tree_add_item(ptr noundef %122, i32 noundef %123, ptr noundef %124, i32 noundef 28, i32 noundef 4, i32 noundef -2147483648)
  %126 = load ptr, ptr %10, align 8
  %127 = load i32, ptr @hf_ubx_nav_pvt_height, align 4
  %128 = load ptr, ptr %5, align 8
  %129 = call ptr @proto_tree_add_item(ptr noundef %126, i32 noundef %127, ptr noundef %128, i32 noundef 32, i32 noundef 4, i32 noundef -2147483648)
  %130 = load ptr, ptr %10, align 8
  %131 = load i32, ptr @hf_ubx_nav_pvt_hmsl, align 4
  %132 = load ptr, ptr %5, align 8
  %133 = call ptr @proto_tree_add_item(ptr noundef %130, i32 noundef %131, ptr noundef %132, i32 noundef 36, i32 noundef 4, i32 noundef -2147483648)
  %134 = load ptr, ptr %10, align 8
  %135 = load i32, ptr @hf_ubx_nav_pvt_hacc, align 4
  %136 = load ptr, ptr %5, align 8
  %137 = call ptr @proto_tree_add_item(ptr noundef %134, i32 noundef %135, ptr noundef %136, i32 noundef 40, i32 noundef 4, i32 noundef -2147483648)
  %138 = load ptr, ptr %10, align 8
  %139 = load i32, ptr @hf_ubx_nav_pvt_vacc, align 4
  %140 = load ptr, ptr %5, align 8
  %141 = call ptr @proto_tree_add_item(ptr noundef %138, i32 noundef %139, ptr noundef %140, i32 noundef 44, i32 noundef 4, i32 noundef -2147483648)
  %142 = load ptr, ptr %10, align 8
  %143 = load i32, ptr @hf_ubx_nav_pvt_veln, align 4
  %144 = load ptr, ptr %5, align 8
  %145 = call ptr @proto_tree_add_item(ptr noundef %142, i32 noundef %143, ptr noundef %144, i32 noundef 48, i32 noundef 4, i32 noundef -2147483648)
  %146 = load ptr, ptr %10, align 8
  %147 = load i32, ptr @hf_ubx_nav_pvt_vele, align 4
  %148 = load ptr, ptr %5, align 8
  %149 = call ptr @proto_tree_add_item(ptr noundef %146, i32 noundef %147, ptr noundef %148, i32 noundef 52, i32 noundef 4, i32 noundef -2147483648)
  %150 = load ptr, ptr %10, align 8
  %151 = load i32, ptr @hf_ubx_nav_pvt_veld, align 4
  %152 = load ptr, ptr %5, align 8
  %153 = call ptr @proto_tree_add_item(ptr noundef %150, i32 noundef %151, ptr noundef %152, i32 noundef 56, i32 noundef 4, i32 noundef -2147483648)
  %154 = load ptr, ptr %10, align 8
  %155 = load i32, ptr @hf_ubx_nav_pvt_gspeed, align 4
  %156 = load ptr, ptr %5, align 8
  %157 = call ptr @proto_tree_add_item(ptr noundef %154, i32 noundef %155, ptr noundef %156, i32 noundef 60, i32 noundef 4, i32 noundef -2147483648)
  %158 = load ptr, ptr %10, align 8
  %159 = load i32, ptr @hf_ubx_nav_pvt_headmot, align 4
  %160 = load ptr, ptr %5, align 8
  %161 = call ptr @proto_tree_add_item(ptr noundef %158, i32 noundef %159, ptr noundef %160, i32 noundef 64, i32 noundef 4, i32 noundef -2147483648)
  %162 = load ptr, ptr %10, align 8
  %163 = load i32, ptr @hf_ubx_nav_pvt_sacc, align 4
  %164 = load ptr, ptr %5, align 8
  %165 = call ptr @proto_tree_add_item(ptr noundef %162, i32 noundef %163, ptr noundef %164, i32 noundef 68, i32 noundef 4, i32 noundef -2147483648)
  %166 = load ptr, ptr %10, align 8
  %167 = load i32, ptr @hf_ubx_nav_pvt_headacc, align 4
  %168 = load ptr, ptr %5, align 8
  %169 = call ptr @proto_tree_add_item(ptr noundef %166, i32 noundef %167, ptr noundef %168, i32 noundef 72, i32 noundef 4, i32 noundef -2147483648)
  %170 = load ptr, ptr %10, align 8
  %171 = load i32, ptr @hf_ubx_nav_pvt_pdop, align 4
  %172 = load ptr, ptr %5, align 8
  %173 = call ptr @proto_tree_add_item(ptr noundef %170, i32 noundef %171, ptr noundef %172, i32 noundef 76, i32 noundef 2, i32 noundef -2147483648)
  %174 = load ptr, ptr %10, align 8
  %175 = load i32, ptr @hf_ubx_nav_pvt_invalidllh, align 4
  %176 = load ptr, ptr %5, align 8
  %177 = call ptr @proto_tree_add_item(ptr noundef %174, i32 noundef %175, ptr noundef %176, i32 noundef 78, i32 noundef 2, i32 noundef -2147483648)
  %178 = load ptr, ptr %10, align 8
  %179 = load i32, ptr @hf_ubx_nav_pvt_lastcorrectionage, align 4
  %180 = load ptr, ptr %5, align 8
  %181 = call ptr @proto_tree_add_item(ptr noundef %178, i32 noundef %179, ptr noundef %180, i32 noundef 78, i32 noundef 2, i32 noundef -2147483648)
  %182 = load ptr, ptr %10, align 8
  %183 = load i32, ptr @hf_ubx_nav_pvt_reserved1, align 4
  %184 = load ptr, ptr %5, align 8
  %185 = call ptr @proto_tree_add_item(ptr noundef %182, i32 noundef %183, ptr noundef %184, i32 noundef 80, i32 noundef 4, i32 noundef -2147483648)
  %186 = load ptr, ptr %10, align 8
  %187 = load i32, ptr @hf_ubx_nav_pvt_headveh, align 4
  %188 = load ptr, ptr %5, align 8
  %189 = call ptr @proto_tree_add_item(ptr noundef %186, i32 noundef %187, ptr noundef %188, i32 noundef 84, i32 noundef 4, i32 noundef -2147483648)
  %190 = load ptr, ptr %10, align 8
  %191 = load i32, ptr @hf_ubx_nav_pvt_magdec, align 4
  %192 = load ptr, ptr %5, align 8
  %193 = call ptr @proto_tree_add_item(ptr noundef %190, i32 noundef %191, ptr noundef %192, i32 noundef 88, i32 noundef 2, i32 noundef -2147483648)
  %194 = load ptr, ptr %10, align 8
  %195 = load i32, ptr @hf_ubx_nav_pvt_magacc, align 4
  %196 = load ptr, ptr %5, align 8
  %197 = call ptr @proto_tree_add_item(ptr noundef %194, i32 noundef %195, ptr noundef %196, i32 noundef 90, i32 noundef 2, i32 noundef -2147483648)
  %198 = load ptr, ptr %5, align 8
  %199 = call i32 @tvb_captured_length(ptr noundef %198)
  ret i32 %199
}