; Function Attrs: nounwind uwtable
define internal i32 @dissect_ubx_nav_pvt(ptr noundef %0, ptr noundef readonly captures(none) %1, ptr noundef %2, ptr readnone captures(none) %3) #0 {
  %5 = getelementptr inbounds nuw i8, ptr %1, i64 8
  %6 = load ptr, ptr %5, align 8
  tail call void @col_set_str(ptr noundef %6, i32 noundef 34, ptr noundef nonnull @.str.173) #5
  %7 = load ptr, ptr %5, align 8
  tail call void @col_clear(ptr noundef %7, i32 noundef 25) #5
  %8 = load i32, ptr @hf_ubx_nav_pvt, align 4
  %9 = tail call ptr @proto_tree_add_item(ptr noundef %2, i32 noundef %8, ptr noundef %0, i32 noundef 0, i32 noundef 92, i32 noundef 0) #5
  %10 = load i32, ptr @ett_ubx_nav_pvt, align 4
  %11 = tail call ptr @proto_item_add_subtree(ptr noundef %9, i32 noundef %10) #5
  %12 = load i32, ptr @hf_ubx_nav_pvt_itow, align 4
  %13 = tail call ptr @proto_tree_add_item(ptr noundef %11, i32 noundef %12, ptr noundef %0, i32 noundef 0, i32 noundef 4, i32 noundef -2147483648) #5
  %14 = tail call signext i16 @tvb_get_gint16(ptr noundef %0, i32 noundef 4, i32 noundef -2147483648) #5
  %15 = tail call signext i8 @tvb_get_gint8(ptr noundef %0, i32 noundef 6) #5
  %16 = tail call signext i8 @tvb_get_gint8(ptr noundef %0, i32 noundef 7) #5
  %17 = tail call signext i8 @tvb_get_gint8(ptr noundef %0, i32 noundef 8) #5
  %18 = tail call signext i8 @tvb_get_gint8(ptr noundef %0, i32 noundef 9) #5
  %19 = tail call signext i8 @tvb_get_gint8(ptr noundef %0, i32 noundef 10) #5
  %20 = load i32, ptr @ett_ubx_nav_pvt_datetime, align 4
  %21 = zext i16 %14 to i32
  %22 = zext i8 %15 to i32
  %23 = zext i8 %16 to i32
  %24 = zext i8 %17 to i32
  %25 = zext i8 %18 to i32
  %26 = zext i8 %19 to i32
  %27 = tail call ptr (ptr, ptr, i32, i32, i32, ptr, ptr, ...) @proto_tree_add_subtree_format(ptr noundef %11, ptr noundef %0, i32 noundef 4, i32 noundef 7, i32 noundef %20, ptr noundef null, ptr noundef nonnull @.str.760, i32 noundef %21, i32 noundef %22, i32 noundef %23, i32 noundef %24, i32 noundef %25, i32 noundef %26) #5
  %28 = load i32, ptr @hf_ubx_nav_pvt_year, align 4
  %29 = tail call ptr @proto_tree_add_item(ptr noundef %27, i32 noundef %28, ptr noundef %0, i32 noundef 4, i32 noundef 2, i32 noundef -2147483648) #5
  %30 = load i32, ptr @hf_ubx_nav_pvt_month, align 4
  %31 = tail call ptr @proto_tree_add_item(ptr noundef %27, i32 noundef %30, ptr noundef %0, i32 noundef 6, i32 noundef 1, i32 noundef 0) #5
  %32 = load i32, ptr @hf_ubx_nav_pvt_day, align 4
  %33 = tail call ptr @proto_tree_add_item(ptr noundef %27, i32 noundef %32, ptr noundef %0, i32 noundef 7, i32 noundef 1, i32 noundef 0) #5
  %34 = load i32, ptr @hf_ubx_nav_pvt_hour, align 4
  %35 = tail call ptr @proto_tree_add_item(ptr noundef %27, i32 noundef %34, ptr noundef %0, i32 noundef 8, i32 noundef 1, i32 noundef 0) #5
  %36 = load i32, ptr @hf_ubx_nav_pvt_min, align 4
  %37 = tail call ptr @proto_tree_add_item(ptr noundef %27, i32 noundef %36, ptr noundef %0, i32 noundef 9, i32 noundef 1, i32 noundef 0) #5
  %38 = load i32, ptr @hf_ubx_nav_pvt_sec, align 4
  %39 = tail call ptr @proto_tree_add_item(ptr noundef %27, i32 noundef %38, ptr noundef %0, i32 noundef 10, i32 noundef 1, i32 noundef 0) #5
  %40 = load i32, ptr @hf_ubx_nav_pvt_valid, align 4
  %41 = load i32, ptr @ett_ubx_nav_pvt_valid, align 4
  %42 = tail call ptr @proto_tree_add_bitmask(ptr noundef %11, ptr noundef %0, i32 noundef 11, i32 noundef %40, i32 noundef %41, ptr noundef nonnull @ubx_nav_pvt_valid_fields, i32 noundef 0) #5
  %43 = load i32, ptr @hf_ubx_nav_pvt_tacc, align 4
  %44 = tail call ptr @proto_tree_add_item(ptr noundef %11, i32 noundef %43, ptr noundef %0, i32 noundef 12, i32 noundef 4, i32 noundef -2147483648) #5
  %45 = load i32, ptr @hf_ubx_nav_pvt_nano, align 4
  %46 = tail call ptr @proto_tree_add_item(ptr noundef %11, i32 noundef %45, ptr noundef %0, i32 noundef 16, i32 noundef 4, i32 noundef -2147483648) #5
  %47 = load i32, ptr @hf_ubx_nav_pvt_fixtype, align 4
  %48 = tail call ptr @proto_tree_add_item(ptr noundef %11, i32 noundef %47, ptr noundef %0, i32 noundef 20, i32 noundef 1, i32 noundef 0) #5
  %49 = load i32, ptr @hf_ubx_nav_pvt_flags, align 4
  %50 = load i32, ptr @ett_ubx_nav_pvt_flags, align 4
  %51 = tail call ptr @proto_tree_add_bitmask(ptr noundef %11, ptr noundef %0, i32 noundef 21, i32 noundef %49, i32 noundef %50, ptr noundef nonnull @ubx_nav_pvt_flags_fields, i32 noundef 0) #5
  %52 = load i32, ptr @hf_ubx_nav_pvt_flags2, align 4
  %53 = load i32, ptr @ett_ubx_nav_pvt_flags2, align 4
  %54 = tail call ptr @proto_tree_add_bitmask(ptr noundef %11, ptr noundef %0, i32 noundef 22, i32 noundef %52, i32 noundef %53, ptr noundef nonnull @ubx_nav_pvt_flags2_fields, i32 noundef 0) #5
  %55 = load i32, ptr @hf_ubx_nav_pvt_numsv, align 4
  %56 = tail call ptr @proto_tree_add_item(ptr noundef %11, i32 noundef %55, ptr noundef %0, i32 noundef 23, i32 noundef 1, i32 noundef 0) #5
  %57 = load i32, ptr @hf_ubx_nav_pvt_lon, align 4
  %58 = tail call ptr @proto_tree_add_item(ptr noundef %11, i32 noundef %57, ptr noundef %0, i32 noundef 24, i32 noundef 4, i32 noundef -2147483648) #5
  %59 = load i32, ptr @hf_ubx_nav_pvt_lat, align 4
  %60 = tail call ptr @proto_tree_add_item(ptr noundef %11, i32 noundef %59, ptr noundef %0, i32 noundef 28, i32 noundef 4, i32 noundef -2147483648) #5
  %61 = load i32, ptr @hf_ubx_nav_pvt_height, align 4
  %62 = tail call ptr @proto_tree_add_item(ptr noundef %11, i32 noundef %61, ptr noundef %0, i32 noundef 32, i32 noundef 4, i32 noundef -2147483648) #5
  %63 = load i32, ptr @hf_ubx_nav_pvt_hmsl, align 4
  %64 = tail call ptr @proto_tree_add_item(ptr noundef %11, i32 noundef %63, ptr noundef %0, i32 noundef 36, i32 noundef 4, i32 noundef -2147483648) #5
  %65 = load i32, ptr @hf_ubx_nav_pvt_hacc, align 4
  %66 = tail call ptr @proto_tree_add_item(ptr noundef %11, i32 noundef %65, ptr noundef %0, i32 noundef 40, i32 noundef 4, i32 noundef -2147483648) #5
  %67 = load i32, ptr @hf_ubx_nav_pvt_vacc, align 4
  %68 = tail call ptr @proto_tree_add_item(ptr noundef %11, i32 noundef %67, ptr noundef %0, i32 noundef 44, i32 noundef 4, i32 noundef -2147483648) #5
  %69 = load i32, ptr @hf_ubx_nav_pvt_veln, align 4
  %70 = tail call ptr @proto_tree_add_item(ptr noundef %11, i32 noundef %69, ptr noundef %0, i32 noundef 48, i32 noundef 4, i32 noundef -2147483648) #5
  %71 = load i32, ptr @hf_ubx_nav_pvt_vele, align 4
  %72 = tail call ptr @proto_tree_add_item(ptr noundef %11, i32 noundef %71, ptr noundef %0, i32 noundef 52, i32 noundef 4, i32 noundef -2147483648) #5
  %73 = load i32, ptr @hf_ubx_nav_pvt_veld, align 4
  %74 = tail call ptr @proto_tree_add_item(ptr noundef %11, i32 noundef %73, ptr noundef %0, i32 noundef 56, i32 noundef 4, i32 noundef -2147483648) #5
  %75 = load i32, ptr @hf_ubx_nav_pvt_gspeed, align 4
  %76 = tail call ptr @proto_tree_add_item(ptr noundef %11, i32 noundef %75, ptr noundef %0, i32 noundef 60, i32 noundef 4, i32 noundef -2147483648) #5
  %77 = load i32, ptr @hf_ubx_nav_pvt_headmot, align 4
  %78 = tail call ptr @proto_tree_add_item(ptr noundef %11, i32 noundef %77, ptr noundef %0, i32 noundef 64, i32 noundef 4, i32 noundef -2147483648) #5
  %79 = load i32, ptr @hf_ubx_nav_pvt_sacc, align 4
  %80 = tail call ptr @proto_tree_add_item(ptr noundef %11, i32 noundef %79, ptr noundef %0, i32 noundef 68, i32 noundef 4, i32 noundef -2147483648) #5
  %81 = load i32, ptr @hf_ubx_nav_pvt_headacc, align 4
  %82 = tail call ptr @proto_tree_add_item(ptr noundef %11, i32 noundef %81, ptr noundef %0, i32 noundef 72, i32 noundef 4, i32 noundef -2147483648) #5
  %83 = load i32, ptr @hf_ubx_nav_pvt_pdop, align 4
  %84 = tail call ptr @proto_tree_add_item(ptr noundef %11, i32 noundef %83, ptr noundef %0, i32 noundef 76, i32 noundef 2, i32 noundef -2147483648) #5
  %85 = load i32, ptr @hf_ubx_nav_pvt_invalidllh, align 4
  %86 = tail call ptr @proto_tree_add_item(ptr noundef %11, i32 noundef %85, ptr noundef %0, i32 noundef 78, i32 noundef 2, i32 noundef -2147483648) #5
  %87 = load i32, ptr @hf_ubx_nav_pvt_lastcorrectionage, align 4
  %88 = tail call ptr @proto_tree_add_item(ptr noundef %11, i32 noundef %87, ptr noundef %0, i32 noundef 78, i32 noundef 2, i32 noundef -2147483648) #5
  %89 = load i32, ptr @hf_ubx_nav_pvt_reserved1, align 4
  %90 = tail call ptr @proto_tree_add_item(ptr noundef %11, i32 noundef %89, ptr noundef %0, i32 noundef 80, i32 noundef 4, i32 noundef -2147483648) #5
  %91 = load i32, ptr @hf_ubx_nav_pvt_headveh, align 4
  %92 = tail call ptr @proto_tree_add_item(ptr noundef %11, i32 noundef %91, ptr noundef %0, i32 noundef 84, i32 noundef 4, i32 noundef -2147483648) #5
  %93 = load i32, ptr @hf_ubx_nav_pvt_magdec, align 4
  %94 = tail call ptr @proto_tree_add_item(ptr noundef %11, i32 noundef %93, ptr noundef %0, i32 noundef 88, i32 noundef 2, i32 noundef -2147483648) #5
  %95 = load i32, ptr @hf_ubx_nav_pvt_magacc, align 4
  %96 = tail call ptr @proto_tree_add_item(ptr noundef %11, i32 noundef %95, ptr noundef %0, i32 noundef 90, i32 noundef 2, i32 noundef -2147483648) #5
  %97 = tail call i32 @tvb_captured_length(ptr noundef %0) #5
  ret i32 %97
}